target datalayout = "e-m:e-p270:32:32-p271:32:32-p272:64:64-i64:64-i128:128-f80:128-n8:16:32:64-S128"
target triple = "x86_64-pc-linux-gnu"

@.str.2 = private unnamed_addr constant [34 x i8] c"../openssl/crypto/x509/v3_sxnet.c\00", align 1
@__func__.SXNET_add_id_ulong = private unnamed_addr constant [19 x i8] c"SXNET_add_id_ulong\00", align 1

; Function Attrs: nounwind uwtable
define i32 @SXNET_add_id_ulong(ptr noundef %0, i64 noundef %1, ptr noundef %2, i32 noundef %3) #0 {
  %5 = alloca i32, align 4
  %6 = alloca ptr, align 8
  %7 = alloca i64, align 8
  %8 = alloca ptr, align 8
  %9 = alloca i32, align 4
  %10 = alloca ptr, align 8
  %11 = alloca i32, align 4
  store ptr %0, ptr %6, align 8, !tbaa !43
  store i64 %1, ptr %7, align 8, !tbaa !29
  store ptr %2, ptr %8, align 8, !tbaa !36
  store i32 %3, ptr %9, align 4, !tbaa !14
  call void @llvm.lifetime.start.p0(i64 8, ptr %10) #5
  %12 = call ptr @ASN1_INTEGER_new()
  store ptr %12, ptr %10, align 8, !tbaa !45
  %13 = icmp eq ptr %12, null
  br i1 %13, label %19, label %14

14:                                               ; preds = %4
  %15 = load ptr, ptr %10, align 8, !tbaa !45
  %16 = load i64, ptr %7, align 8, !tbaa !29
  %17 = call i32 @ASN1_INTEGER_set(ptr noundef %15, i64 noundef %16)
  %18 = icmp ne i32 %17, 0
  br i1 %18, label %21, label %19

19:                                               ; preds = %14, %4
  call void @ERR_new()
  call void @ERR_set_debug(ptr noundef @.str.2, i32 noundef 144, ptr noundef @__func__.SXNET_add_id_ulong)
  call void (i32, i32, ptr, ...) @ERR_set_error(i32 noundef 34, i32 noundef 524301, ptr noundef null)
  %20 = load ptr, ptr %10, align 8, !tbaa !45
  call void @ASN1_INTEGER_free(ptr noundef %20)
  store i32 0, ptr %5, align 4
  store i32 1, ptr %11, align 4
  br label %31

21:                                               ; preds = %14
  %22 = load ptr, ptr %6, align 8, !tbaa !43
  %23 = load ptr, ptr %10, align 8, !tbaa !45
  %24 = load ptr, ptr %8, align 8, !tbaa !36
  %25 = load i32, ptr %9, align 4, !tbaa !14
  %26 = call i32 @SXNET_add_id_INTEGER(ptr noundef %22, ptr noundef %23, ptr noundef %24, i32 noundef %25)
  %27 = icmp ne i32 %26, 0
  br i1 %27, label %30, label %28

28:                                               ; preds = %21
  %29 = load ptr, ptr %10, align 8, !tbaa !45
  call void @ASN1_INTEGER_free(ptr noundef %29)
  store i32 0, ptr %5, align 4
  store i32 1, ptr %11, align 4
  br label %31

30:                                               ; preds = %21
  store i32 1, ptr %5, align 4
  store i32 1, ptr %11, align 4
  br label %31

31:                                               ; preds = %30, %28, %19
  call void @llvm.lifetime.end.p0(i64 8, ptr %10) #5
  %32 = load i32, ptr %5, align 4
  ret i32 %32
}