; Function Attrs: nounwind uwtable
define range(i32 0, 2) i32 @SXNET_add_id_ulong(ptr noundef captures(address_is_null) %0, i64 noundef %1, ptr noundef %2, i32 noundef %3) local_unnamed_addr #1 {
  %5 = tail call ptr @ASN1_INTEGER_new() #5
  %6 = icmp eq ptr %5, null
  br i1 %6, label %9, label %7

7:                                                ; preds = %4
  %8 = tail call i32 @ASN1_INTEGER_set(ptr noundef nonnull %5, i64 noundef %1) #5
  %.not = icmp eq i32 %8, 0
  br i1 %.not, label %9, label %10

9:                                                ; preds = %7, %4
  tail call void @ERR_new() #5
  tail call void @ERR_set_debug(ptr noundef nonnull @.str.2, i32 noundef 144, ptr noundef nonnull @__func__.SXNET_add_id_ulong) #5
  tail call void (i32, i32, ptr, ...) @ERR_set_error(i32 noundef 34, i32 noundef 524301, ptr noundef null) #5
  br label %.sink.split

10:                                               ; preds = %7
  %11 = tail call i32 @SXNET_add_id_INTEGER(ptr noundef %0, ptr noundef nonnull %5, ptr noundef %2, i32 noundef %3)
  %.not9 = icmp eq i32 %11, 0
  br i1 %.not9, label %.sink.split, label %12

.sink.split:                                      ; preds = %10, %9
  tail call void @ASN1_INTEGER_free(ptr noundef %5) #5
  br label %12

12:                                               ; preds = %.sink.split, %10
  %.0 = phi i32 [ 1, %10 ], [ 0, %.sink.split ]
  ret i32 %.0
}